; Function Attrs: mustprogress uwtable
define dso_local noundef zeroext i1 @_ZN21cmCTestLaunchReporter5MatchERKNSt7__cxx1112basic_stringIcSt11char_traitsIcESaIcEEERSt6vectorIN5cmsys17RegularExpressionESaISA_EE(ptr noundef nonnull readnone align 8 captures(none) dereferenceable(672) %0, ptr noundef nonnull readonly align 8 captures(none) dereferenceable(32) %1, ptr noundef nonnull readonly align 8 captures(none) dereferenceable(24) %2) local_unnamed_addr #3 align 2 personality ptr @__gxx_personality_v0 {
  %4 = load ptr, ptr %2, align 8, !tbaa !197
  %5 = getelementptr inbounds nuw i8, ptr %2, i64 8
  %6 = load ptr, ptr %5, align 8, !tbaa !197
  %.not12.not = icmp eq ptr %4, %6
  br i1 %.not12.not, label %._crit_edge, label %.lr.ph

.lr.ph:                                           ; preds = %3, %.lr.ph
  %.sroa.09.013 = phi ptr [ %9, %.lr.ph ], [ %4, %3 ]
  %7 = load ptr, ptr %1, align 8, !tbaa !49
  %8 = tail call noundef zeroext i1 @_ZNK5cmsys17RegularExpression4findEPKcRNS_22RegularExpressionMatchEmj(ptr noundef nonnull align 8 dereferenceable(560) %.sroa.09.013, ptr noundef %7, ptr noundef nonnull align 8 dereferenceable(560) %.sroa.09.013, i64 noundef 0, i32 noundef 0)
  %9 = getelementptr inbounds nuw i8, ptr %.sroa.09.013, i64 560
  %.not.not = icmp eq ptr %9, %6
  %or.cond = select i1 %8, i1 true, i1 %.not.not
  br i1 %or.cond, label %._crit_edge, label %.lr.ph

._crit_edge:                                      ; preds = %.lr.ph, %3
  %.not.lcssa = phi i1 [ false, %3 ], [ %8, %.lr.ph ]
  ret i1 %.not.lcssa
}